target datalayout = "e-m:e-p270:32:32-p271:32:32-p272:64:64-i64:64-i128:128-f80:128-n8:16:32:64-S128"
target triple = "x86_64-pc-linux-gnu"

%struct.IDAMemRec = type { double, ptr, ptr, i32, double, double, ptr, i32, ptr, ptr, i32, ptr, ptr, i32, i32, double, double, ptr, i32, i32, i32, ptr, ptr, i32, ptr, ptr, ptr, i32, double, i32, i32, double, ptr, ptr, i32, ptr, ptr, i32, i32, i32, double, ptr, ptr, [6 x ptr], [6 x double], [6 x double], [6 x double], [6 x double], [6 x double], ptr, ptr, ptr, ptr, ptr, ptr, ptr, ptr, ptr, ptr, ptr, ptr, ptr, ptr, ptr, [6 x ptr], ptr, ptr, ptr, ptr, [6 x ptr], ptr, ptr, ptr, ptr, ptr, ptr, ptr, ptr, ptr, ptr, ptr, ptr, ptr, ptr, [6 x ptr], ptr, ptr, ptr, ptr, ptr, double, ptr, ptr, i32, i32, i32, i32, i32, i32, i32, double, double, double, i32, double, i32, i32, i32, i32, double, double, double, double, double, double, double, double, double, double, double, double, double, double, i32, i32, i32, i32, i32, i64, double, i32, i64, i64, i64, i64, i64, i64, i64, i64, i64, i64, i64, i64, i64, i64, i64, i64, i64, i64, i64, i64, i64, i64, i64, i64, ptr, ptr, ptr, i32, i32, i32, i32, i32, i32, i32, i32, i32, i32, i32, i32, i32, ptr, ptr, ptr, ptr, ptr, ptr, i32, i32, i32, i32, i32, i32, double, double, double, ptr, i32, ptr, ptr, double, double, double, ptr, ptr, ptr, double, double, i32, i32, i64, ptr, i32, i32, ptr, i32 }

@.str = private unnamed_addr constant [5 x i8] c"IDAS\00", align 1
@.str.4 = private unnamed_addr constant [24 x i8] c"ida_mem = NULL illegal.\00", align 1
@.str.30 = private unnamed_addr constant [52 x i8] c"Illegal attempt to call before calling IDASensInit.\00", align 1
@.str.40 = private unnamed_addr constant [73 x i8] c"Forward sensitivity analysis for quadrature variables was not activated.\00", align 1
@.str.74 = private unnamed_addr constant [20 x i8] c"dky = NULL illegal.\00", align 1
@.str.86 = private unnamed_addr constant [16 x i8] c"IDAGetQuadSens1\00", align 1

; Function Attrs: nounwind uwtable
define i32 @IDAGetQuadSens1(ptr noundef %0, ptr noundef %1, i32 noundef %2, ptr noundef %3) #0 {
  %5 = alloca i32, align 4
  %6 = alloca ptr, align 8
  %7 = alloca ptr, align 8
  %8 = alloca i32, align 4
  %9 = alloca ptr, align 8
  %10 = alloca ptr, align 8
  %11 = alloca i32, align 4
  store ptr %0, ptr %6, align 8, !tbaa !91
  store ptr %1, ptr %7, align 8, !tbaa !195
  store i32 %2, ptr %8, align 4, !tbaa !88
  store ptr %3, ptr %9, align 8, !tbaa !93
  call void @llvm.lifetime.start.p0(i64 8, ptr %10) #8
  %12 = load ptr, ptr %6, align 8, !tbaa !91
  %13 = icmp eq ptr %12, null
  br i1 %13, label %14, label %15

14:                                               ; preds = %4
  call void (ptr, i32, ptr, ptr, ptr, ...) @IDAProcessError(ptr noundef null, i32 noundef -20, ptr noundef @.str, ptr noundef @.str.86, ptr noundef @.str.4)
  store i32 -20, ptr %5, align 4
  store i32 1, ptr %11, align 4
  br label %46

15:                                               ; preds = %4
  %16 = load ptr, ptr %6, align 8, !tbaa !91
  store ptr %16, ptr %10, align 8, !tbaa !3
  %17 = load ptr, ptr %10, align 8, !tbaa !3
  %18 = getelementptr inbounds nuw %struct.IDAMemRec, ptr %17, i32 0, i32 18
  %19 = load i32, ptr %18, align 8, !tbaa !53
  %20 = icmp eq i32 %19, 0
  br i1 %20, label %21, label %23

21:                                               ; preds = %15
  %22 = load ptr, ptr %10, align 8, !tbaa !3
  call void (ptr, i32, ptr, ptr, ptr, ...) @IDAProcessError(ptr noundef %22, i32 noundef -40, ptr noundef @.str, ptr noundef @.str.86, ptr noundef @.str.30)
  store i32 -40, ptr %5, align 4
  store i32 1, ptr %11, align 4
  br label %46

23:                                               ; preds = %15
  %24 = load ptr, ptr %10, align 8, !tbaa !3
  %25 = getelementptr inbounds nuw %struct.IDAMemRec, ptr %24, i32 0, i32 34
  %26 = load i32, ptr %25, align 8, !tbaa !65
  %27 = icmp eq i32 %26, 0
  br i1 %27, label %28, label %30

28:                                               ; preds = %23
  %29 = load ptr, ptr %10, align 8, !tbaa !3
  call void (ptr, i32, ptr, ptr, ptr, ...) @IDAProcessError(ptr noundef %29, i32 noundef -50, ptr noundef @.str, ptr noundef @.str.86, ptr noundef @.str.40)
  store i32 -50, ptr %5, align 4
  store i32 1, ptr %11, align 4
  br label %46

30:                                               ; preds = %23
  %31 = load ptr, ptr %9, align 8, !tbaa !93
  %32 = icmp eq ptr %31, null
  br i1 %32, label %33, label %35

33:                                               ; preds = %30
  %34 = load ptr, ptr %10, align 8, !tbaa !3
  call void (ptr, i32, ptr, ptr, ptr, ...) @IDAProcessError(ptr noundef %34, i32 noundef -27, ptr noundef @.str, ptr noundef @.str.86, ptr noundef @.str.74)
  store i32 -27, ptr %5, align 4
  store i32 1, ptr %11, align 4
  br label %46

35:                                               ; preds = %30
  %36 = load ptr, ptr %10, align 8, !tbaa !3
  %37 = getelementptr inbounds nuw %struct.IDAMemRec, ptr %36, i32 0, i32 113
  %38 = load double, ptr %37, align 8, !tbaa !237
  %39 = load ptr, ptr %7, align 8, !tbaa !195
  store double %38, ptr %39, align 8, !tbaa !92
  %40 = load ptr, ptr %6, align 8, !tbaa !91
  %41 = load ptr, ptr %7, align 8, !tbaa !195
  %42 = load double, ptr %41, align 8, !tbaa !92
  %43 = load i32, ptr %8, align 4, !tbaa !88
  %44 = load ptr, ptr %9, align 8, !tbaa !93
  %45 = call i32 @IDAGetQuadSensDky1(ptr noundef %40, double noundef %42, i32 noundef 0, i32 noundef %43, ptr noundef %44)
  store i32 %45, ptr %5, align 4
  store i32 1, ptr %11, align 4
  br label %46

46:                                               ; preds = %35, %33, %28, %21, %14
  call void @llvm.lifetime.end.p0(i64 8, ptr %10) #8
  %47 = load i32, ptr %5, align 4
  ret i32 %47
}